; Function Attrs: nounwind uwtable
define dso_local { ptr, ptr } @gen_cbinding(ptr noundef %0, i32 noundef %1, ptr %2, ptr %3) local_unnamed_addr #1 {
  %5 = icmp sgt i32 %1, 0
  br i1 %5, label %.lr.ph.preheader, label %._crit_edge

.lr.ph.preheader:                                 ; preds = %4
  %wide.trip.count = zext nneg i32 %1 to i64
  br label %.lr.ph

._crit_edge:                                      ; preds = %block_join.exit, %4
  %.sroa.014.0.lcssa = phi ptr [ %2, %4 ], [ %6, %block_join.exit ]
  %.sroa.415.0.lcssa = phi ptr [ %3, %4 ], [ %.sroa.3.0.i, %block_join.exit ]
  %.fca.0.insert = insertvalue { ptr, ptr } poison, ptr %.sroa.014.0.lcssa, 0
  %.fca.1.insert = insertvalue { ptr, ptr } %.fca.0.insert, ptr %.sroa.415.0.lcssa, 1
  ret { ptr, ptr } %.fca.1.insert

.lr.ph:                                           ; preds = %.lr.ph.preheader, %block_join.exit
  %indvars.iv = phi i64 [ 0, %.lr.ph.preheader ], [ %indvars.iv.next, %block_join.exit ]
  %.sroa.415.022 = phi ptr [ %3, %.lr.ph.preheader ], [ %.sroa.3.0.i, %block_join.exit ]
  %.sroa.014.021 = phi ptr [ %2, %.lr.ph.preheader ], [ %6, %block_join.exit ]
  %6 = tail call ptr @jv_mem_alloc(i64 noundef 160) #17
  %7 = getelementptr inbounds nuw i8, ptr %6, i64 16
  tail call void @llvm.memset.p0.i64(ptr noundef nonnull align 8 dereferenceable(16) %6, i8 0, i64 16, i1 false)
  store i32 34, ptr %7, align 8, !tbaa !25
  %8 = getelementptr inbounds nuw i8, ptr %6, i64 152
  store i32 -1, ptr %8, align 8, !tbaa !26
  %9 = getelementptr inbounds nuw i8, ptr %6, i64 80
  %10 = getelementptr inbounds nuw i8, ptr %6, i64 104
  tail call void @llvm.memset.p0.i64(ptr noundef nonnull align 8 dereferenceable(24) %9, i8 0, i64 24, i1 false)
  store i32 -1, ptr %10, align 8, !tbaa !27
  %11 = getelementptr inbounds nuw i8, ptr %6, i64 108
  store i32 -1, ptr %11, align 4, !tbaa !28
  %12 = getelementptr inbounds nuw i8, ptr %6, i64 112
  %13 = getelementptr inbounds nuw i8, ptr %6, i64 72
  tail call void @llvm.memset.p0.i64(ptr noundef nonnull align 8 dereferenceable(32) %12, i8 0, i64 32, i1 false)
  store i64 -1, ptr %13, align 8
  %14 = getelementptr inbounds nuw i8, ptr %6, i64 64
  store ptr null, ptr %14, align 8, !tbaa !21
  %15 = getelementptr inbounds nuw %struct.cfunction, ptr %0, i64 %indvars.iv
  %16 = getelementptr inbounds nuw i8, ptr %6, i64 56
  store ptr %15, ptr %16, align 8, !tbaa !62
  %17 = getelementptr inbounds nuw i8, ptr %15, i64 8
  %18 = load ptr, ptr %17, align 8, !tbaa !63
  %19 = tail call noalias ptr @strdup(ptr noundef %18) #17
  %20 = getelementptr inbounds nuw i8, ptr %6, i64 88
  store ptr %19, ptr %20, align 8, !tbaa !30
  %21 = getelementptr inbounds nuw i8, ptr %15, i64 16
  %22 = load i32, ptr %21, align 8, !tbaa !65
  %23 = add nsw i32 %22, -1
  store i32 %23, ptr %10, align 8, !tbaa !27
  %24 = getelementptr inbounds nuw i8, ptr %6, i64 96
  store i32 0, ptr %24, align 8, !tbaa !31
  %.not.i.i = icmp eq ptr %.sroa.014.021, null
  br i1 %.not.i.i, label %block_join.exit, label %25

25:                                               ; preds = %.lr.ph
  store ptr %.sroa.014.021, ptr %6, align 8, !tbaa !22
  %26 = getelementptr inbounds nuw i8, ptr %.sroa.014.021, i64 8
  store ptr %6, ptr %26, align 8, !tbaa !34
  br label %block_join.exit

block_join.exit:                                  ; preds = %.lr.ph, %25
  %.sroa.3.0.i = phi ptr [ %6, %.lr.ph ], [ %.sroa.415.022, %25 ]
  %indvars.iv.next = add nuw nsw i64 %indvars.iv, 1
  %exitcond.not = icmp eq i64 %indvars.iv.next, %wide.trip.count
  br i1 %exitcond.not, label %._crit_edge, label %.lr.ph, !llvm.loop !66
}